; Function Attrs: mustprogress uwtable
define hidden void @_ZN28horn_subsume_model_converter6insertEP3appP4expr(ptr noundef nonnull align 8 dereferenceable(120) %0, ptr noundef %1, ptr noundef %2) local_unnamed_addr #3 align 2 {
  %.not.i.i.i.i = icmp eq ptr %1, null
  br i1 %.not.i.i.i.i, label %_ZN15ref_vector_coreI3app19ref_manager_wrapperIS0_11ast_managerEE7inc_refEPS0_.exit.i, label %4

4:                                                ; preds = %3
  %5 = getelementptr inbounds nuw i8, ptr %1, i64 8
  %6 = load i32, ptr %5, align 4, !tbaa !3
  %7 = add i32 %6, 1
  store i32 %7, ptr %5, align 4, !tbaa !3
  br label %_ZN15ref_vector_coreI3app19ref_manager_wrapperIS0_11ast_managerEE7inc_refEPS0_.exit.i

_ZN15ref_vector_coreI3app19ref_manager_wrapperIS0_11ast_managerEE7inc_refEPS0_.exit.i: ; preds = %4, %3
  %8 = getelementptr inbounds nuw i8, ptr %0, i64 96
  %9 = load ptr, ptr %8, align 8, !tbaa !8
  %10 = icmp eq ptr %9, null
  br i1 %10, label %17, label %11

11:                                               ; preds = %_ZN15ref_vector_coreI3app19ref_manager_wrapperIS0_11ast_managerEE7inc_refEPS0_.exit.i
  %12 = getelementptr inbounds i8, ptr %9, i64 -4
  %13 = load i32, ptr %12, align 4, !tbaa !13
  %14 = getelementptr inbounds i8, ptr %9, i64 -8
  %15 = load i32, ptr %14, align 4, !tbaa !13
  %16 = icmp eq i32 %13, %15
  br i1 %16, label %17, label %_ZN15ref_vector_coreI3app19ref_manager_wrapperIS0_11ast_managerEE9push_backEPS0_.exit

17:                                               ; preds = %11, %_ZN15ref_vector_coreI3app19ref_manager_wrapperIS0_11ast_managerEE7inc_refEPS0_.exit.i
  tail call void @_ZN6vectorIP3appLb0EjE13expand_vectorEv(ptr noundef nonnull align 8 dereferenceable(8) %8)
  %.pre.i.i = load ptr, ptr %8, align 8, !tbaa !8
  %.phi.trans.insert.i.i = getelementptr inbounds i8, ptr %.pre.i.i, i64 -4
  %.pre2.i.i = load i32, ptr %.phi.trans.insert.i.i, align 4, !tbaa !13
  br label %_ZN15ref_vector_coreI3app19ref_manager_wrapperIS0_11ast_managerEE9push_backEPS0_.exit

_ZN15ref_vector_coreI3app19ref_manager_wrapperIS0_11ast_managerEE9push_backEPS0_.exit: ; preds = %11, %17
  %18 = phi i32 [ %.pre2.i.i, %17 ], [ %13, %11 ]
  %19 = phi ptr [ %.pre.i.i, %17 ], [ %9, %11 ]
  %20 = getelementptr inbounds i8, ptr %19, i64 -4
  %21 = zext i32 %18 to i64
  %22 = getelementptr inbounds nuw ptr, ptr %19, i64 %21
  store ptr %1, ptr %22, align 8, !tbaa !14
  %23 = add i32 %18, 1
  store i32 %23, ptr %20, align 4, !tbaa !13
  %.not.i.i.i.i3 = icmp eq ptr %2, null
  br i1 %.not.i.i.i.i3, label %_ZN15ref_vector_coreI4expr19ref_manager_wrapperIS0_11ast_managerEE7inc_refEPS0_.exit.i, label %24

24:                                               ; preds = %_ZN15ref_vector_coreI3app19ref_manager_wrapperIS0_11ast_managerEE9push_backEPS0_.exit
  %25 = getelementptr inbounds nuw i8, ptr %2, i64 8
  %26 = load i32, ptr %25, align 4, !tbaa !3
  %27 = add i32 %26, 1
  store i32 %27, ptr %25, align 4, !tbaa !3
  br label %_ZN15ref_vector_coreI4expr19ref_manager_wrapperIS0_11ast_managerEE7inc_refEPS0_.exit.i

_ZN15ref_vector_coreI4expr19ref_manager_wrapperIS0_11ast_managerEE7inc_refEPS0_.exit.i: ; preds = %24, %_ZN15ref_vector_coreI3app19ref_manager_wrapperIS0_11ast_managerEE9push_backEPS0_.exit
  %28 = getelementptr inbounds nuw i8, ptr %0, i64 112
  %29 = load ptr, ptr %28, align 8, !tbaa !16
  %30 = icmp eq ptr %29, null
  br i1 %30, label %37, label %31

31:                                               ; preds = %_ZN15ref_vector_coreI4expr19ref_manager_wrapperIS0_11ast_managerEE7inc_refEPS0_.exit.i
  %32 = getelementptr inbounds i8, ptr %29, i64 -4
  %33 = load i32, ptr %32, align 4, !tbaa !13
  %34 = getelementptr inbounds i8, ptr %29, i64 -8
  %35 = load i32, ptr %34, align 4, !tbaa !13
  %36 = icmp eq i32 %33, %35
  br i1 %36, label %37, label %_ZN15ref_vector_coreI4expr19ref_manager_wrapperIS0_11ast_managerEE9push_backEPS0_.exit

37:                                               ; preds = %31, %_ZN15ref_vector_coreI4expr19ref_manager_wrapperIS0_11ast_managerEE7inc_refEPS0_.exit.i
  tail call void @_ZN6vectorIP4exprLb0EjE13expand_vectorEv(ptr noundef nonnull align 8 dereferenceable(8) %28)
  %.pre.i.i4 = load ptr, ptr %28, align 8, !tbaa !16
  %.phi.trans.insert.i.i5 = getelementptr inbounds i8, ptr %.pre.i.i4, i64 -4
  %.pre2.i.i6 = load i32, ptr %.phi.trans.insert.i.i5, align 4, !tbaa !13
  br label %_ZN15ref_vector_coreI4expr19ref_manager_wrapperIS0_11ast_managerEE9push_backEPS0_.exit

_ZN15ref_vector_coreI4expr19ref_manager_wrapperIS0_11ast_managerEE9push_backEPS0_.exit: ; preds = %31, %37
  %38 = phi i32 [ %.pre2.i.i6, %37 ], [ %33, %31 ]
  %39 = phi ptr [ %.pre.i.i4, %37 ], [ %29, %31 ]
  %40 = getelementptr inbounds i8, ptr %39, i64 -4
  %41 = zext i32 %38 to i64
  %42 = getelementptr inbounds nuw ptr, ptr %39, i64 %41
  store ptr %2, ptr %42, align 8, !tbaa !19
  %43 = add i32 %38, 1
  store i32 %43, ptr %40, align 4, !tbaa !13
  ret void
}